target datalayout = "e-m:e-p270:32:32-p271:32:32-p272:64:64-i64:64-i128:128-f80:128-n8:16:32:64-S128"
target triple = "x86_64-pc-linux-gnu"

%class.aiMatrix4x4t = type { float, float, float, float, float, float, float, float, float, float, float, float, float, float, float, float }
%class.aiVector3t = type { float, float, float }
%class.aiQuaterniont = type { float, float, float, float }
%"struct.Assimp::Ogre::TransformKeyFrame" = type { float, %class.aiQuaterniont, %class.aiVector3t, %class.aiVector3t }
%class.aiMatrix3x3t = type { float, float, float, float, float, float, float, float, float }

; Function Attrs: mustprogress nounwind uwtable
define linkonce_odr hidden void @_ZN12aiMatrix3x3tIfEC2Ev(ptr noundef nonnull align 4 dereferenceable(36) %0) unnamed_addr #0 comdat align 2 {
  %2 = alloca ptr, align 8
  store ptr %0, ptr %2, align 8
  %3 = load ptr, ptr %2, align 8
  %4 = getelementptr inbounds nuw %class.aiMatrix3x3t, ptr %3, i32 0, i32 0
  store float 1.000000e+00, ptr %4, align 4
  %5 = getelementptr inbounds nuw %class.aiMatrix3x3t, ptr %3, i32 0, i32 1
  store float 0.000000e+00, ptr %5, align 4
  %6 = getelementptr inbounds nuw %class.aiMatrix3x3t, ptr %3, i32 0, i32 2
  store float 0.000000e+00, ptr %6, align 4
  %7 = getelementptr inbounds nuw %class.aiMatrix3x3t, ptr %3, i32 0, i32 3
  store float 0.000000e+00, ptr %7, align 4
  %8 = getelementptr inbounds nuw %class.aiMatrix3x3t, ptr %3, i32 0, i32 4
  store float 1.000000e+00, ptr %8, align 4
  %9 = getelementptr inbounds nuw %class.aiMatrix3x3t, ptr %3, i32 0, i32 5
  store float 0.000000e+00, ptr %9, align 4
  %10 = getelementptr inbounds nuw %class.aiMatrix3x3t, ptr %3, i32 0, i32 6
  store float 0.000000e+00, ptr %10, align 4
  %11 = getelementptr inbounds nuw %class.aiMatrix3x3t, ptr %3, i32 0, i32 7
  store float 0.000000e+00, ptr %11, align 4
  %12 = getelementptr inbounds nuw %class.aiMatrix3x3t, ptr %3, i32 0, i32 8
  store float 1.000000e+00, ptr %12, align 4
  ret void
}

; Function Attrs: inlinehint mustprogress nounwind uwtable
define linkonce_odr hidden void @_ZNK13aiQuaterniontIfE9GetMatrixEv(ptr dead_on_unwind noalias writable sret(%class.aiMatrix3x3t) align 4 %0, ptr noundef nonnull align 4 dereferenceable(16) %1) #3 comdat align 2 {
  %3 = alloca ptr, align 8
  store ptr %1, ptr %3, align 8
  %4 = load ptr, ptr %3, align 8
  call void @_ZN12aiMatrix3x3tIfEC2Ev(ptr noundef nonnull align 4 dereferenceable(36) %0) #20
  %5 = getelementptr inbounds nuw %class.aiQuaterniont, ptr %4, i32 0, i32 2
  %6 = load float, ptr %5, align 4
  %7 = getelementptr inbounds nuw %class.aiQuaterniont, ptr %4, i32 0, i32 2
  %8 = load float, ptr %7, align 4
  %9 = getelementptr inbounds nuw %class.aiQuaterniont, ptr %4, i32 0, i32 3
  %10 = load float, ptr %9, align 4
  %11 = getelementptr inbounds nuw %class.aiQuaterniont, ptr %4, i32 0, i32 3
  %12 = load float, ptr %11, align 4
  %13 = fmul float %10, %12
  %14 = call float @llvm.fmuladd.f32(float %6, float %8, float %13)
  %15 = call float @llvm.fmuladd.f32(float -2.000000e+00, float %14, float 1.000000e+00)
  %16 = getelementptr inbounds nuw %class.aiMatrix3x3t, ptr %0, i32 0, i32 0
  store float %15, ptr %16, align 4
  %17 = getelementptr inbounds nuw %class.aiQuaterniont, ptr %4, i32 0, i32 1
  %18 = load float, ptr %17, align 4
  %19 = getelementptr inbounds nuw %class.aiQuaterniont, ptr %4, i32 0, i32 2
  %20 = load float, ptr %19, align 4
  %21 = getelementptr inbounds nuw %class.aiQuaterniont, ptr %4, i32 0, i32 3
  %22 = load float, ptr %21, align 4
  %23 = getelementptr inbounds nuw %class.aiQuaterniont, ptr %4, i32 0, i32 0
  %24 = load float, ptr %23, align 4
  %25 = fmul float %22, %24
  %26 = fneg float %25
  %27 = call float @llvm.fmuladd.f32(float %18, float %20, float %26)
  %28 = fmul float 2.000000e+00, %27
  %29 = getelementptr inbounds nuw %class.aiMatrix3x3t, ptr %0, i32 0, i32 1
  store float %28, ptr %29, align 4
  %30 = getelementptr inbounds nuw %class.aiQuaterniont, ptr %4, i32 0, i32 1
  %31 = load float, ptr %30, align 4
  %32 = getelementptr inbounds nuw %class.aiQuaterniont, ptr %4, i32 0, i32 3
  %33 = load float, ptr %32, align 4
  %34 = getelementptr inbounds nuw %class.aiQuaterniont, ptr %4, i32 0, i32 2
  %35 = load float, ptr %34, align 4
  %36 = getelementptr inbounds nuw %class.aiQuaterniont, ptr %4, i32 0, i32 0
  %37 = load float, ptr %36, align 4
  %38 = fmul float %35, %37
  %39 = call float @llvm.fmuladd.f32(float %31, float %33, float %38)
  %40 = fmul float 2.000000e+00, %39
  %41 = getelementptr inbounds nuw %class.aiMatrix3x3t, ptr %0, i32 0, i32 2
  store float %40, ptr %41, align 4
  %42 = getelementptr inbounds nuw %class.aiQuaterniont, ptr %4, i32 0, i32 1
  %43 = load float, ptr %42, align 4
  %44 = getelementptr inbounds nuw %class.aiQuaterniont, ptr %4, i32 0, i32 2
  %45 = load float, ptr %44, align 4
  %46 = getelementptr inbounds nuw %class.aiQuaterniont, ptr %4, i32 0, i32 3
  %47 = load float, ptr %46, align 4
  %48 = getelementptr inbounds nuw %class.aiQuaterniont, ptr %4, i32 0, i32 0
  %49 = load float, ptr %48, align 4
  %50 = fmul float %47, %49
  %51 = call float @llvm.fmuladd.f32(float %43, float %45, float %50)
  %52 = fmul float 2.000000e+00, %51
  %53 = getelementptr inbounds nuw %class.aiMatrix3x3t, ptr %0, i32 0, i32 3
  store float %52, ptr %53, align 4
  %54 = getelementptr inbounds nuw %class.aiQuaterniont, ptr %4, i32 0, i32 1
  %55 = load float, ptr %54, align 4
  %56 = getelementptr inbounds nuw %class.aiQuaterniont, ptr %4, i32 0, i32 1
  %57 = load float, ptr %56, align 4
  %58 = getelementptr inbounds nuw %class.aiQuaterniont, ptr %4, i32 0, i32 3
  %59 = load float, ptr %58, align 4
  %60 = getelementptr inbounds nuw %class.aiQuaterniont, ptr %4, i32 0, i32 3
  %61 = load float, ptr %60, align 4
  %62 = fmul float %59, %61
  %63 = call float @llvm.fmuladd.f32(float %55, float %57, float %62)
  %64 = call float @llvm.fmuladd.f32(float -2.000000e+00, float %63, float 1.000000e+00)
  %65 = getelementptr inbounds nuw %class.aiMatrix3x3t, ptr %0, i32 0, i32 4
  store float %64, ptr %65, align 4
  %66 = getelementptr inbounds nuw %class.aiQuaterniont, ptr %4, i32 0, i32 2
  %67 = load float, ptr %66, align 4
  %68 = getelementptr inbounds nuw %class.aiQuaterniont, ptr %4, i32 0, i32 3
  %69 = load float, ptr %68, align 4
  %70 = getelementptr inbounds nuw %class.aiQuaterniont, ptr %4, i32 0, i32 1
  %71 = load float, ptr %70, align 4
  %72 = getelementptr inbounds nuw %class.aiQuaterniont, ptr %4, i32 0, i32 0
  %73 = load float, ptr %72, align 4
  %74 = fmul float %71, %73
  %75 = fneg float %74
  %76 = call float @llvm.fmuladd.f32(float %67, float %69, float %75)
  %77 = fmul float 2.000000e+00, %76
  %78 = getelementptr inbounds nuw %class.aiMatrix3x3t, ptr %0, i32 0, i32 5
  store float %77, ptr %78, align 4
  %79 = getelementptr inbounds nuw %class.aiQuaterniont, ptr %4, i32 0, i32 1
  %80 = load float, ptr %79, align 4
  %81 = getelementptr inbounds nuw %class.aiQuaterniont, ptr %4, i32 0, i32 3
  %82 = load float, ptr %81, align 4
  %83 = getelementptr inbounds nuw %class.aiQuaterniont, ptr %4, i32 0, i32 2
  %84 = load float, ptr %83, align 4
  %85 = getelementptr inbounds nuw %class.aiQuaterniont, ptr %4, i32 0, i32 0
  %86 = load float, ptr %85, align 4
  %87 = fmul float %84, %86
  %88 = fneg float %87
  %89 = call float @llvm.fmuladd.f32(float %80, float %82, float %88)
  %90 = fmul float 2.000000e+00, %89
  %91 = getelementptr inbounds nuw %class.aiMatrix3x3t, ptr %0, i32 0, i32 6
  store float %90, ptr %91, align 4
  %92 = getelementptr inbounds nuw %class.aiQuaterniont, ptr %4, i32 0, i32 2
  %93 = load float, ptr %92, align 4
  %94 = getelementptr inbounds nuw %class.aiQuaterniont, ptr %4, i32 0, i32 3
  %95 = load float, ptr %94, align 4
  %96 = getelementptr inbounds nuw %class.aiQuaterniont, ptr %4, i32 0, i32 1
  %97 = load float, ptr %96, align 4
  %98 = getelementptr inbounds nuw %class.aiQuaterniont, ptr %4, i32 0, i32 0
  %99 = load float, ptr %98, align 4
  %100 = fmul float %97, %99
  %101 = call float @llvm.fmuladd.f32(float %93, float %95, float %100)
  %102 = fmul float 2.000000e+00, %101
  %103 = getelementptr inbounds nuw %class.aiMatrix3x3t, ptr %0, i32 0, i32 7
  store float %102, ptr %103, align 4
  %104 = getelementptr inbounds nuw %class.aiQuaterniont, ptr %4, i32 0, i32 1
  %105 = load float, ptr %104, align 4
  %106 = getelementptr inbounds nuw %class.aiQuaterniont, ptr %4, i32 0, i32 1
  %107 = load float, ptr %106, align 4
  %108 = getelementptr inbounds nuw %class.aiQuaterniont, ptr %4, i32 0, i32 2
  %109 = load float, ptr %108, align 4
  %110 = getelementptr inbounds nuw %class.aiQuaterniont, ptr %4, i32 0, i32 2
  %111 = load float, ptr %110, align 4
  %112 = fmul float %109, %111
  %113 = call float @llvm.fmuladd.f32(float %105, float %107, float %112)
  %114 = call float @llvm.fmuladd.f32(float -2.000000e+00, float %113, float 1.000000e+00)
  %115 = getelementptr inbounds nuw %class.aiMatrix3x3t, ptr %0, i32 0, i32 8
  store float %114, ptr %115, align 4
  ret void
}

; Function Attrs: inlinehint mustprogress uwtable
define linkonce_odr hidden void @_ZN12aiMatrix4x4tIfEC2ERK10aiVector3tIfERK13aiQuaterniontIfES4_(ptr noundef nonnull align 4 dereferenceable(64) %0, ptr noundef nonnull align 4 dereferenceable(12) %1, ptr noundef nonnull align 4 dereferenceable(16) %2, ptr noundef nonnull align 4 dereferenceable(12) %3) unnamed_addr #12 comdat align 2 {
  %5 = alloca ptr, align 8
  %6 = alloca ptr, align 8
  %7 = alloca ptr, align 8
  %8 = alloca ptr, align 8
  %9 = alloca %class.aiMatrix3x3t, align 4
  store ptr %0, ptr %5, align 8
  store ptr %1, ptr %6, align 8
  store ptr %2, ptr %7, align 8
  store ptr %3, ptr %8, align 8
  %10 = load ptr, ptr %5, align 8
  call void @llvm.lifetime.start.p0(i64 36, ptr %9) #20
  %11 = load ptr, ptr %7, align 8
  call void @_ZNK13aiQuaterniontIfE9GetMatrixEv(ptr dead_on_unwind writable sret(%class.aiMatrix3x3t) align 4 %9, ptr noundef nonnull align 4 dereferenceable(16) %11)
  %12 = getelementptr inbounds nuw %class.aiMatrix3x3t, ptr %9, i32 0, i32 0
  %13 = load float, ptr %12, align 4
  %14 = load ptr, ptr %6, align 8
  %15 = getelementptr inbounds nuw %class.aiVector3t, ptr %14, i32 0, i32 0
  %16 = load float, ptr %15, align 4
  %17 = fmul float %13, %16
  %18 = getelementptr inbounds nuw %class.aiMatrix4x4t, ptr %10, i32 0, i32 0
  store float %17, ptr %18, align 4
  %19 = getelementptr inbounds nuw %class.aiMatrix3x3t, ptr %9, i32 0, i32 1
  %20 = load float, ptr %19, align 4
  %21 = load ptr, ptr %6, align 8
  %22 = getelementptr inbounds nuw %class.aiVector3t, ptr %21, i32 0, i32 0
  %23 = load float, ptr %22, align 4
  %24 = fmul float %20, %23
  %25 = getelementptr inbounds nuw %class.aiMatrix4x4t, ptr %10, i32 0, i32 1
  store float %24, ptr %25, align 4
  %26 = getelementptr inbounds nuw %class.aiMatrix3x3t, ptr %9, i32 0, i32 2
  %27 = load float, ptr %26, align 4
  %28 = load ptr, ptr %6, align 8
  %29 = getelementptr inbounds nuw %class.aiVector3t, ptr %28, i32 0, i32 0
  %30 = load float, ptr %29, align 4
  %31 = fmul float %27, %30
  %32 = getelementptr inbounds nuw %class.aiMatrix4x4t, ptr %10, i32 0, i32 2
  store float %31, ptr %32, align 4
  %33 = load ptr, ptr %8, align 8
  %34 = getelementptr inbounds nuw %class.aiVector3t, ptr %33, i32 0, i32 0
  %35 = load float, ptr %34, align 4
  %36 = getelementptr inbounds nuw %class.aiMatrix4x4t, ptr %10, i32 0, i32 3
  store float %35, ptr %36, align 4
  %37 = getelementptr inbounds nuw %class.aiMatrix3x3t, ptr %9, i32 0, i32 3
  %38 = load float, ptr %37, align 4
  %39 = load ptr, ptr %6, align 8
  %40 = getelementptr inbounds nuw %class.aiVector3t, ptr %39, i32 0, i32 1
  %41 = load float, ptr %40, align 4
  %42 = fmul float %38, %41
  %43 = getelementptr inbounds nuw %class.aiMatrix4x4t, ptr %10, i32 0, i32 4
  store float %42, ptr %43, align 4
  %44 = getelementptr inbounds nuw %class.aiMatrix3x3t, ptr %9, i32 0, i32 4
  %45 = load float, ptr %44, align 4
  %46 = load ptr, ptr %6, align 8
  %47 = getelementptr inbounds nuw %class.aiVector3t, ptr %46, i32 0, i32 1
  %48 = load float, ptr %47, align 4
  %49 = fmul float %45, %48
  %50 = getelementptr inbounds nuw %class.aiMatrix4x4t, ptr %10, i32 0, i32 5
  store float %49, ptr %50, align 4
  %51 = getelementptr inbounds nuw %class.aiMatrix3x3t, ptr %9, i32 0, i32 5
  %52 = load float, ptr %51, align 4
  %53 = load ptr, ptr %6, align 8
  %54 = getelementptr inbounds nuw %class.aiVector3t, ptr %53, i32 0, i32 1
  %55 = load float, ptr %54, align 4
  %56 = fmul float %52, %55
  %57 = getelementptr inbounds nuw %class.aiMatrix4x4t, ptr %10, i32 0, i32 6
  store float %56, ptr %57, align 4
  %58 = load ptr, ptr %8, align 8
  %59 = getelementptr inbounds nuw %class.aiVector3t, ptr %58, i32 0, i32 1
  %60 = load float, ptr %59, align 4
  %61 = getelementptr inbounds nuw %class.aiMatrix4x4t, ptr %10, i32 0, i32 7
  store float %60, ptr %61, align 4
  %62 = getelementptr inbounds nuw %class.aiMatrix3x3t, ptr %9, i32 0, i32 6
  %63 = load float, ptr %62, align 4
  %64 = load ptr, ptr %6, align 8
  %65 = getelementptr inbounds nuw %class.aiVector3t, ptr %64, i32 0, i32 2
  %66 = load float, ptr %65, align 4
  %67 = fmul float %63, %66
  %68 = getelementptr inbounds nuw %class.aiMatrix4x4t, ptr %10, i32 0, i32 8
  store float %67, ptr %68, align 4
  %69 = getelementptr inbounds nuw %class.aiMatrix3x3t, ptr %9, i32 0, i32 7
  %70 = load float, ptr %69, align 4
  %71 = load ptr, ptr %6, align 8
  %72 = getelementptr inbounds nuw %class.aiVector3t, ptr %71, i32 0, i32 2
  %73 = load float, ptr %72, align 4
  %74 = fmul float %70, %73
  %75 = getelementptr inbounds nuw %class.aiMatrix4x4t, ptr %10, i32 0, i32 9
  store float %74, ptr %75, align 4
  %76 = getelementptr inbounds nuw %class.aiMatrix3x3t, ptr %9, i32 0, i32 8
  %77 = load float, ptr %76, align 4
  %78 = load ptr, ptr %6, align 8
  %79 = getelementptr inbounds nuw %class.aiVector3t, ptr %78, i32 0, i32 2
  %80 = load float, ptr %79, align 4
  %81 = fmul float %77, %80
  %82 = getelementptr inbounds nuw %class.aiMatrix4x4t, ptr %10, i32 0, i32 10
  store float %81, ptr %82, align 4
  %83 = load ptr, ptr %8, align 8
  %84 = getelementptr inbounds nuw %class.aiVector3t, ptr %83, i32 0, i32 2
  %85 = load float, ptr %84, align 4
  %86 = getelementptr inbounds nuw %class.aiMatrix4x4t, ptr %10, i32 0, i32 11
  store float %85, ptr %86, align 4
  %87 = getelementptr inbounds nuw %class.aiMatrix4x4t, ptr %10, i32 0, i32 12
  store float 0.000000e+00, ptr %87, align 4
  %88 = getelementptr inbounds nuw %class.aiMatrix4x4t, ptr %10, i32 0, i32 13
  store float 0.000000e+00, ptr %88, align 4
  %89 = getelementptr inbounds nuw %class.aiMatrix4x4t, ptr %10, i32 0, i32 14
  store float 0.000000e+00, ptr %89, align 4
  %90 = getelementptr inbounds nuw %class.aiMatrix4x4t, ptr %10, i32 0, i32 15
  store float 1.000000e+00, ptr %90, align 4
  call void @llvm.lifetime.end.p0(i64 36, ptr %9) #20
  ret void
}

; Function Attrs: mustprogress uwtable
define hidden void @_ZN6Assimp4Ogre17TransformKeyFrame9TransformEv(ptr dead_on_unwind noalias writable sret(%class.aiMatrix4x4t) align 4 %0, ptr noundef nonnull align 4 dereferenceable(44) %1) #1 align 2 {
  %3 = alloca ptr, align 8
  store ptr %1, ptr %3, align 8
  %4 = load ptr, ptr %3, align 8
  %5 = getelementptr inbounds nuw %"struct.Assimp::Ogre::TransformKeyFrame", ptr %4, i32 0, i32 3
  %6 = getelementptr inbounds nuw %"struct.Assimp::Ogre::TransformKeyFrame", ptr %4, i32 0, i32 1
  %7 = getelementptr inbounds nuw %"struct.Assimp::Ogre::TransformKeyFrame", ptr %4, i32 0, i32 2
  call void @_ZN12aiMatrix4x4tIfEC2ERK10aiVector3tIfERK13aiQuaterniontIfES4_(ptr noundef nonnull align 4 dereferenceable(64) %0, ptr noundef nonnull align 4 dereferenceable(12) %5, ptr noundef nonnull align 4 dereferenceable(16) %6, ptr noundef nonnull align 4 dereferenceable(12) %7)
  ret void
}