; Function Attrs: mustprogress nofree norecurse nosync nounwind willreturn memory(argmem: readwrite) uwtable
define hidden void @_ZN6Assimp4Ogre17TransformKeyFrame9TransformEv(ptr dead_on_unwind noalias writable writeonly sret(%class.aiMatrix4x4t) align 4 captures(none) initializes((0, 64)) %0, ptr noundef nonnull readonly align 4 captures(none) dereferenceable(44) %1) local_unnamed_addr #20 align 2 {
  %3 = getelementptr inbounds nuw i8, ptr %1, i64 32
  %4 = getelementptr inbounds nuw i8, ptr %1, i64 4
  %5 = getelementptr inbounds nuw i8, ptr %1, i64 20
  %6 = getelementptr inbounds nuw i8, ptr %1, i64 12
  %7 = load float, ptr %6, align 4, !noalias !73
  %8 = getelementptr inbounds nuw i8, ptr %1, i64 16
  %9 = load float, ptr %8, align 4, !noalias !73
  %10 = fmul float %9, %9
  %11 = tail call float @llvm.fmuladd.f32(float %7, float %7, float %10)
  %12 = tail call float @llvm.fmuladd.f32(float %11, float -2.000000e+00, float 1.000000e+00)
  %13 = getelementptr inbounds nuw i8, ptr %1, i64 8
  %14 = load float, ptr %13, align 4, !noalias !73
  %15 = load float, ptr %4, align 4, !noalias !73
  %16 = fneg float %15
  %17 = fmul float %9, %16
  %18 = tail call float @llvm.fmuladd.f32(float %14, float %7, float %17)
  %19 = fmul float %18, 2.000000e+00
  %20 = fmul float %7, %15
  %21 = tail call float @llvm.fmuladd.f32(float %14, float %9, float %20)
  %22 = fmul float %21, 2.000000e+00
  %23 = fmul float %9, %15
  %24 = tail call float @llvm.fmuladd.f32(float %14, float %7, float %23)
  %25 = fmul float %24, 2.000000e+00
  %26 = tail call float @llvm.fmuladd.f32(float %14, float %14, float %10)
  %27 = tail call float @llvm.fmuladd.f32(float %26, float -2.000000e+00, float 1.000000e+00)
  %28 = fmul float %14, %16
  %29 = tail call float @llvm.fmuladd.f32(float %7, float %9, float %28)
  %30 = fmul float %29, 2.000000e+00
  %31 = fmul float %7, %16
  %32 = tail call float @llvm.fmuladd.f32(float %14, float %9, float %31)
  %33 = fmul float %32, 2.000000e+00
  %34 = fmul float %14, %15
  %35 = tail call float @llvm.fmuladd.f32(float %7, float %9, float %34)
  %36 = fmul float %35, 2.000000e+00
  %37 = fmul float %7, %7
  %38 = tail call float @llvm.fmuladd.f32(float %14, float %14, float %37)
  %39 = tail call float @llvm.fmuladd.f32(float %38, float -2.000000e+00, float 1.000000e+00)
  %40 = load float, ptr %3, align 4
  %41 = fmul float %12, %40
  store float %41, ptr %0, align 4
  %42 = fmul float %40, %19
  %43 = getelementptr inbounds nuw i8, ptr %0, i64 4
  store float %42, ptr %43, align 4
  %44 = fmul float %40, %22
  %45 = getelementptr inbounds nuw i8, ptr %0, i64 8
  store float %44, ptr %45, align 4
  %46 = load float, ptr %5, align 4
  %47 = getelementptr inbounds nuw i8, ptr %0, i64 12
  store float %46, ptr %47, align 4
  %48 = getelementptr inbounds nuw i8, ptr %1, i64 36
  %49 = load float, ptr %48, align 4
  %50 = fmul float %25, %49
  %51 = getelementptr inbounds nuw i8, ptr %0, i64 16
  store float %50, ptr %51, align 4
  %52 = fmul float %27, %49
  %53 = getelementptr inbounds nuw i8, ptr %0, i64 20
  store float %52, ptr %53, align 4
  %54 = fmul float %30, %49
  %55 = getelementptr inbounds nuw i8, ptr %0, i64 24
  store float %54, ptr %55, align 4
  %56 = getelementptr inbounds nuw i8, ptr %1, i64 24
  %57 = load float, ptr %56, align 4
  %58 = getelementptr inbounds nuw i8, ptr %0, i64 28
  store float %57, ptr %58, align 4
  %59 = getelementptr inbounds nuw i8, ptr %1, i64 40
  %60 = load float, ptr %59, align 4
  %61 = fmul float %33, %60
  %62 = getelementptr inbounds nuw i8, ptr %0, i64 32
  store float %61, ptr %62, align 4
  %63 = fmul float %36, %60
  %64 = getelementptr inbounds nuw i8, ptr %0, i64 36
  store float %63, ptr %64, align 4
  %65 = fmul float %39, %60
  %66 = getelementptr inbounds nuw i8, ptr %0, i64 40
  store float %65, ptr %66, align 4
  %67 = getelementptr inbounds nuw i8, ptr %1, i64 28
  %68 = load float, ptr %67, align 4
  %69 = getelementptr inbounds nuw i8, ptr %0, i64 44
  store float %68, ptr %69, align 4
  %70 = getelementptr inbounds nuw i8, ptr %0, i64 48
  store float 0.000000e+00, ptr %70, align 4
  %71 = getelementptr inbounds nuw i8, ptr %0, i64 52
  store float 0.000000e+00, ptr %71, align 4
  %72 = getelementptr inbounds nuw i8, ptr %0, i64 56
  store float 0.000000e+00, ptr %72, align 4
  %73 = getelementptr inbounds nuw i8, ptr %0, i64 60
  store float 1.000000e+00, ptr %73, align 4
  ret void
}